; ModuleID = '15/1861.c'
source_filename = "15/1861.c"
target datalayout = "e-m:e-p270:32:32-p271:32:32-p272:64:64-i64:64-f80:128-n8:16:32:64-S128"
target triple = "x86_64-pc-linux-gnu"

@.str = private unnamed_addr constant [3 x i8] c"%d\00", align 1

; Function Attrs: noinline nounwind uwtable
define dso_local i32 @main() #0 {
  %1 = alloca i32, align 4
  %2 = alloca i32, align 4
  %3 = alloca i32, align 4
  %4 = alloca i32, align 4
  %5 = alloca i32, align 4
  %6 = alloca i32, align 4
  %7 = alloca i32, align 4
  %8 = alloca i32, align 4
  %9 = alloca i32, align 4
  %10 = alloca [1000 x [1000 x i32]], align 16
  store i32 0, i32* %1, align 4
  %11 = call i32 (i8*, ...) @__isoc99_scanf(i8* getelementptr inbounds ([3 x i8], [3 x i8]* @.str, i64 0, i64 0), i32* %2)
  store i32 0, i32* %3, align 4
  br label %12

12:                                               ; preds = %33, %0
  %13 = load i32, i32* %3, align 4
  %14 = load i32, i32* %2, align 4
  %15 = icmp slt i32 %13, %14
  br i1 %15, label %16, label %36

16:                                               ; preds = %12
  store i32 0, i32* %4, align 4
  br label %17

17:                                               ; preds = %29, %16
  %18 = load i32, i32* %4, align 4
  %19 = load i32, i32* %2, align 4
  %20 = icmp slt i32 %18, %19
  br i1 %20, label %21, label %32

21:                                               ; preds = %17
  %22 = load i32, i32* %3, align 4
  %23 = sext i32 %22 to i64
  %24 = getelementptr inbounds [1000 x [1000 x i32]], [1000 x [1000 x i32]]* %10, i64 0, i64 %23
  %25 = load i32, i32* %4, align 4
  %26 = sext i32 %25 to i64
  %27 = getelementptr inbounds [1000 x i32], [1000 x i32]* %24, i64 0, i64 %26
  %28 = call i32 (i8*, ...) @__isoc99_scanf(i8* getelementptr inbounds ([3 x i8], [3 x i8]* @.str, i64 0, i64 0), i32* %27)
  br label %29

29:                                               ; preds = %21
  %30 = load i32, i32* %4, align 4
  %31 = add nsw i32 %30, 1
  store i32 %31, i32* %4, align 4
  br label %17

32:                                               ; preds = %17
  br label %33

33:                                               ; preds = %32
  %34 = load i32, i32* %3, align 4
  %35 = add nsw i32 %34, 1
  store i32 %35, i32* %3, align 4
  br label %12

36:                                               ; preds = %12
  store i32 0, i32* %3, align 4
  br label %37

37:                                               ; preds = %68, %36
  %38 = load i32, i32* %3, align 4
  %39 = load i32, i32* %2, align 4
  %40 = icmp slt i32 %38, %39
  br i1 %40, label %41, label %71

41:                                               ; preds = %37
  store i32 0, i32* %4, align 4
  br label %42

42:                                               ; preds = %59, %41
  %43 = load i32, i32* %4, align 4
  %44 = load i32, i32* %2, align 4
  %45 = icmp slt i32 %43, %44
  br i1 %45, label %46, label %62

46:                                               ; preds = %42
  %47 = load i32, i32* %3, align 4
  %48 = sext i32 %47 to i64
  %49 = getelementptr inbounds [1000 x [1000 x i32]], [1000 x [1000 x i32]]* %10, i64 0, i64 %48
  %50 = load i32, i32* %4, align 4
  %51 = sext i32 %50 to i64
  %52 = getelementptr inbounds [1000 x i32], [1000 x i32]* %49, i64 0, i64 %51
  %53 = load i32, i32* %52, align 4
  %54 = icmp eq i32 %53, 0
  br i1 %54, label %55, label %58

55:                                               ; preds = %46
  %56 = load i32, i32* %3, align 4
  store i32 %56, i32* %5, align 4
  %57 = load i32, i32* %4, align 4
  store i32 %57, i32* %6, align 4
  br label %62

58:                                               ; preds = %46
  br label %59

59:                                               ; preds = %58
  %60 = load i32, i32* %4, align 4
  %61 = add nsw i32 %60, 1
  store i32 %61, i32* %4, align 4
  br label %42

62:                                               ; preds = %55, %42
  %63 = load i32, i32* %4, align 4
  %64 = load i32, i32* %2, align 4
  %65 = icmp slt i32 %63, %64
  br i1 %65, label %66, label %67

66:                                               ; preds = %62
  br label %71

67:                                               ; preds = %62
  br label %68

68:                                               ; preds = %67
  %69 = load i32, i32* %3, align 4
  %70 = add nsw i32 %69, 1
  store i32 %70, i32* %3, align 4
  br label %37

71:                                               ; preds = %66, %37
  %72 = load i32, i32* %2, align 4
  %73 = sub nsw i32 %72, 1
  store i32 %73, i32* %3, align 4
  br label %74

74:                                               ; preds = %104, %71
  %75 = load i32, i32* %3, align 4
  %76 = icmp sge i32 %75, 0
  br i1 %76, label %77, label %107

77:                                               ; preds = %74
  %78 = load i32, i32* %2, align 4
  %79 = sub nsw i32 %78, 1
  store i32 %79, i32* %4, align 4
  br label %80

80:                                               ; preds = %96, %77
  %81 = load i32, i32* %4, align 4
  %82 = icmp sge i32 %81, 0
  br i1 %82, label %83, label %99

83:                                               ; preds = %80
  %84 = load i32, i32* %3, align 4
  %85 = sext i32 %84 to i64
  %86 = getelementptr inbounds [1000 x [1000 x i32]], [1000 x [1000 x i32]]* %10, i64 0, i64 %85
  %87 = load i32, i32* %4, align 4
  %88 = sext i32 %87 to i64
  %89 = getelementptr inbounds [1000 x i32], [1000 x i32]* %86, i64 0, i64 %88
  %90 = load i32, i32* %89, align 4
  %91 = icmp eq i32 %90, 0
  br i1 %91, label %92, label %95

92:                                               ; preds = %83
  %93 = load i32, i32* %3, align 4
  store i32 %93, i32* %7, align 4
  %94 = load i32, i32* %4, align 4
  store i32 %94, i32* %8, align 4
  br label %99

95:                                               ; preds = %83
  br label %96

96:                                               ; preds = %95
  %97 = load i32, i32* %4, align 4
  %98 = add nsw i32 %97, -1
  store i32 %98, i32* %4, align 4
  br label %80

99:                                               ; preds = %92, %80
  %100 = load i32, i32* %4, align 4
  %101 = icmp sge i32 %100, 0
  br i1 %101, label %102, label %103

102:                                              ; preds = %99
  br label %107

103:                                              ; preds = %99
  br label %104

104:                                              ; preds = %103
  %105 = load i32, i32* %3, align 4
  %106 = add nsw i32 %105, -1
  store i32 %106, i32* %3, align 4
  br label %74

107:                                              ; preds = %102, %74
  %108 = load i32, i32* %7, align 4
  %109 = load i32, i32* %5, align 4
  %110 = sub nsw i32 %108, %109
  %111 = sub nsw i32 %110, 1
  %112 = load i32, i32* %8, align 4
  %113 = load i32, i32* %6, align 4
  %114 = sub nsw i32 %112, %113
  %115 = sub nsw i32 %114, 1
  %116 = mul nsw i32 %111, %115
  store i32 %116, i32* %9, align 4
  %117 = load i32, i32* %9, align 4
  %118 = call i32 (i8*, ...) @printf(i8* getelementptr inbounds ([3 x i8], [3 x i8]* @.str, i64 0, i64 0), i32 %117)
  ret i32 0
}

declare dso_local i32 @__isoc99_scanf(i8*, ...) #1

declare dso_local i32 @printf(i8*, ...) #1


!llvm.module.flags = !{!0}
!llvm.ident = !{!1}

!0 = !{i32 1, !"wchar_size", i32 4}
!1 = !{!"clang version 10.0.0-4ubuntu1 "}
